(dp0
S'owl'
p1
S'Strigiformes'
p2
sS'antelope'
p3
S'Antilocapra americana'
p4
sS'sparrow'
p5
S'Zonotrichia'
p6
sS'wren'
p7
S'Troglodytidae'
p8
sS'flicker'
p9
S'Colaptes'
p10
sS'human_bike'
p11
S'Homo erectus'
p12
sS'rodent'
p13
S'Muridae'
p14
sS'spotted_skunk'
p15
S'Spilogale gracilis'
p16
sS'brush_rabbit'
p17
S'Sylvilagus bachmani'
p18
sS'small mammal'
p19
S'Rodentia'
p20
sS'human'
p21
g12
sS'bobcat'
p22
S'Lynx rufus'
p23
sS'chicken'
p24
S'Gallus gallus domesticus'
p25
sS'cottontail'
p26
S'Sylvilagus audubonii'
p27
sS'WoodRat'
p28
S'Neotoma fuscipes'
p29
sS'red_fox'
p30
S'Vulpes vulpes fulvus'
p31
sS'elk'
p32
S'Cervus canadensis'
p33
sS'horse'
p34
S'Equus caballus'
p35
sS'herp'
p36
S'Lacertilia'
p37
sS'jay'
p38
S'Corvidae'
p39
sS'whiptail'
p40
S'Aspidoscelis'
p41
sS'ringtail'
p42
S'Bassariscus astutus'
p43
sS'white-crowned_sparrow'
p44
S'Zonotrichia leucophrys'
p45
sS'SUSC_pig'
p46
S'Sus scrofa'
p47
sS'american_goldfinch'
p48
S'Spinus tristis'
p49
sS'yellow-rumped_warbler'
p50
S'Setophaga coronata'
p51
sS'burrowing_owl'
p52
S'Athene cunicularia'
p53
sS'mule_deer'
p54
S'Odocoileus hemionus californicus'
p55
sS'house_finch'
p56
S'Haemorhous mexicanus'
p57
sS'oak_titmouse'
p58
S'Baeolophus inornatus'
p59
sS'black-headed_grossbeak'
p60
S'Pheucticus melanocephalus'
p61
sS'pinyon_jay'
p62
S'Gymnorhinus cyanocephalus'
p63
sS'raven'
p64
S'Corvus corax'
p65
sS'great_egret'
p66
S'Ardea alba'
p67
sS'hermit_thrush'
p68
S'Catharus guttatus'
p69
sS'black_phoebe'
p70
S'Sayornis nigricans'
p71
sS'ROSP_ratlike'
p72
g14
sS'turkey_vulture'
p73
S'Cathartes aura'
p74
sS'coot'
p75
S'Fulica americana'
p76
sS'great_blue_heron'
p77
S'Ardea herodias'
p78
sS'california_towhee'
p79
S'Melozone crissalis'
p80
sS'ground_dove'
p81
S'Columbina'
p82
sS'opossum'
p83
S'Didelphis'
p84
sS'red-tailed_hawk'
p85
S'Buteo jamaicensis'
p86
sS'burro'
p87
S'Equus asinus'
p88
sS'rabbit'
p89
S'Leporidae'
p90
sS'fox_squirrel'
p91
S'Sciurus niger'
p92
sS'coyote'
p93
S'Canis latrans'
p94
sS'california_quail'
p95
S'Callipepla californica'
p96
sS'woodrat'
p97
g29
sS'scrub_jay'
p98
S'Aphelocoma californica'
p99
sS'bat'
p100
S'Chiroptera'
p101
sS'gnatcatcher'
p102
S'Polioptilidae'
p103
sS'bluejay'
p104
S'Cyanocitta cristata'
p105
sS'desert_cottontail'
p106
g27
sS'road runner'
p107
S'Geococcyx californianus'
p108
sS'golden_eagle'
p109
S'Aquila chrysaetos'
p110
sS'cat'
p111
S'Felis catus'
p112
sS'Rat'
p113
S'Rattus rattus'
p114
sS'badger'
p115
S'Mustelidae'
p116
sS'bighorn_sheep'
p117
S'Ovis canadensis'
p118
sS'robin'
p119
S'Turdus migratorius'
p120
sS'mountain_lion'
p121
S'Puma concolor'
p122
sS'cowbird'
p123
S'Molothrus'
p124
sS'deer_mouse'
p125
S'Peromyscus maniculatus'
p126
sS'acorn_woodpecker'
p127
S'Melanerpes formicivorus'
p128
sS'moth'
p129
S'Lepidoptera'
p130
sS'crow'
p131
S'Corvus brachyrhynchos'
p132
sS'rock_sparrow'
p133
S'Petronia petronia'
p134
sS'deer'
p135
S'Cervidae'
p136
sS'horned_owl'
p137
S'Bubo'
p138
sS'black-hooded_parakeet'
p139
S'Aratinga nenday'
p140
sS'northern_flicker'
p141
S'Colaptes auratus'
p142
sS'rat'
p143
g114
sS'mouse_or_rat'
p144
g14
sS'jackrabbit'
p145
S'Lepus'
p146
sS'krat'
p147
S'Dipodomys merriami'
p148
sS'quail'
p149
S'Coturnix coturnix'
p150
sS'chukar'
p151
S'Alectoris chukar'
p152
sS'woodpecker'
p153
S'Picidae'
p154
sS'mouse'
p155
S'Mus'
p156
sS'california_mouse'
p157
S'Peromyscus californicus'
p158
sS'DIVI_opossum'
p159
S'Didelphis virginiana'
p160
sS'northern_harrier'
p161
S'Circus cyaneus hudsonius'
p162
sS'squirrel'
p163
S'Sciuridae'
p164
sS'kangaroo_rat'
p165
g148
sS'meadowlark'
p166
S'Sturnella neglecta'
p167
sS'western_scrub_jay'
p168
g99
sS'fox'
p169
S'Vulpes'
p170
sS'lizard'
p171
g37
sS'human_horse'
p172
g35
sS'spotted_towhee'
p173
S'Pipilo maculatus'
p174
sS'dark-eyed_junco'
p175
S'Junco hyemalis'
p176
sS'western_meadowlark'
p177
g167
sS'sage_thrasher'
p178
S'Oreoscoptes montanus'
p179
sS'finch'
p180
S'Spinus'
p181
sS'american_robin'
p182
g120
sS'cliff_chipmunk'
p183
S'Tamias dorsalis'
p184
sS'field_mouse'
p185
S'Microtus pennsylvanicus'
p186
sS'bird'
p187
S'Aves'
p188
sS'butterfly'
p189
g130
sS'common_poorwill'
p190
S'Phalaenoptilus nuttallii'
p191
sS'human_ohv'
p192
S'car'
p193
sS'thrush'
p194
S'Turdus'
p195
sS'fence_lizard'
p196
S'Sceloporus occidentalis'
p197
sS'barn_owl'
p198
S'Tyto alba'
p199
sS'striped_skunk'
p200
S'Mephitis mephitis'
p201
sS'belted_kingfisher'
p202
S'Megaceryle alcyon'
p203
sS'kit_fox'
p204
S'Vulpes macrotis'
p205
sS'gray_squirrel'
p206
S'Sciurus griseus'
p207
sS'antelope_squirrel'
p208
S'Ammospermophilus'
p209
sS'white_crowned_sparrow'
p210
g45
sS'fox_sparrow'
p211
S'Passerella iliaca'
p212
sS'california_thrasher'
p213
S'Toxostoma redivivum'
p214
sS'rock_squirrel'
p215
S'Otospermophilus variegatus'
p216
sS'hawk'
p217
S'Accipitridae'
p218
sS'dove'
p219
S'Zenaida macroura'
p220
sS'hummingbird'
p221
S'Calypte'
p222
sS'northern_mockingbird'
p223
S'Mimus polyglottos'
p224
sS'grayfox'
p225
S'Urocyon cinereoargenteus'
p226
sS'clarks_nutcracker'
p227
S'Nucifraga columbiana'
p228
sS'cow'
p229
S'Bos taurus'
p230
sS'thrasher'
p231
S'Mimidae'
p232
sS'pig'
p233
g47
sS'dog'
p234
S'Canis familiaris'
p235
sS'rock_wren'
p236
S'Salpinctes obsoletus'
p237
sS'coopers_hawk'
p238
S'Accipiter cooperii'
p239
sS'black_bear'
p240
S'Ursus americanus'
p241
sS'mourning_dove'
p242
g220
sS'raccoon'
p243
S'Procyon lotor'
p244
sS'skunk'
p245
S'Mephitidae'
p246
sS'coyote_pup'
p247
g94
s.